	.cpu cortex-m4
	.eabi_attribute 27, 1
	.eabi_attribute 28, 1
	.eabi_attribute 20, 1
	.eabi_attribute 21, 1
	.eabi_attribute 23, 3
	.eabi_attribute 24, 1
	.eabi_attribute 25, 1
	.eabi_attribute 26, 1
	.eabi_attribute 30, 6
	.eabi_attribute 34, 1
	.eabi_attribute 18, 4
	.file	"utf.c"
	.text
.Ltext0:
	.section	.text.utf8EncodeRune,"ax",%progbits
	.align	1
	.global	utf8EncodeRune
	.syntax unified
	.thumb
	.thumb_func
	.fpu fpv4-sp-d16
	.type	utf8EncodeRune, %function
utf8EncodeRune:
.LFB0:
	.file 1 "C:\\Nordic SDK\\tes\\nRF5_SDK_15.2.0_9412b96\\external\\utf_converter\\utf.c"
	.loc 1 13 0
	@ args = 0, pretend = 0, frame = 16
	@ frame_needed = 0, uses_anonymous_args = 0
	@ link register save eliminated.
	sub	sp, sp, #16
.LCFI0:
	str	r0, [sp, #4]
	str	r1, [sp]
	.loc 1 15 0
	movs	r3, #0
	strb	r3, [sp, #14]
	.loc 1 16 0
	movs	r3, #0
	strb	r3, [sp, #13]
	.loc 1 17 0
	movs	r3, #0
	strb	r3, [sp, #12]
	.loc 1 21 0
	ldr	r3, [sp, #4]
	cmp	r3, #1114112
	bcc	.L2
	.loc 1 22 0
	movw	r3, #65533
	str	r3, [sp, #4]
.L2:
	.loc 1 24 0
	ldr	r3, [sp, #4]
	cmp	r3, #55296
	bcc	.L3
	.loc 1 24 0 is_stmt 0 discriminator 1
	ldr	r3, [sp, #4]
	cmp	r3, #57344
	bcs	.L3
	.loc 1 25 0 is_stmt 1
	movw	r3, #65533
	str	r3, [sp, #4]
.L3:
	.loc 1 27 0
	ldr	r3, [sp, #4]
	cmp	r3, #127
	bhi	.L4
	.loc 1 28 0
	ldr	r3, [sp, #4]
	strb	r3, [sp, #15]
	.loc 1 29 0
	movs	r3, #1
	str	r3, [sp, #8]
	.loc 1 30 0
	b	.L5
.L4:
	.loc 1 32 0
	ldr	r3, [sp, #4]
	cmp	r3, #2048
	bcs	.L6
	.loc 1 33 0
	ldr	r3, [sp, #4]
	uxtb	r3, r3
	and	r3, r3, #63
	strb	r3, [sp, #14]
	.loc 1 34 0
	ldrb	r3, [sp, #14]
	orn	r3, r3, #127
	strb	r3, [sp, #14]
	.loc 1 35 0
	ldr	r3, [sp, #4]
	lsrs	r3, r3, #6
	str	r3, [sp, #4]
	.loc 1 36 0
	ldr	r3, [sp, #4]
	uxtb	r3, r3
	and	r3, r3, #31
	strb	r3, [sp, #15]
	.loc 1 37 0
	ldrb	r3, [sp, #15]
	orn	r3, r3, #63
	strb	r3, [sp, #15]
	.loc 1 38 0
	movs	r3, #2
	str	r3, [sp, #8]
	.loc 1 39 0
	b	.L5
.L6:
	.loc 1 41 0
	ldr	r3, [sp, #4]
	cmp	r3, #65536
	bcs	.L7
	.loc 1 42 0
	ldr	r3, [sp, #4]
	uxtb	r3, r3
	and	r3, r3, #63
	strb	r3, [sp, #13]
	.loc 1 43 0
	ldrb	r3, [sp, #13]
	orn	r3, r3, #127
	strb	r3, [sp, #13]
	.loc 1 44 0
	ldr	r3, [sp, #4]
	lsrs	r3, r3, #6
	str	r3, [sp, #4]
	.loc 1 45 0
	ldr	r3, [sp, #4]
	uxtb	r3, r3
	and	r3, r3, #63
	strb	r3, [sp, #14]
	.loc 1 46 0
	ldrb	r3, [sp, #14]
	orn	r3, r3, #127
	strb	r3, [sp, #14]
	.loc 1 47 0
	ldr	r3, [sp, #4]
	lsrs	r3, r3, #6
	str	r3, [sp, #4]
	.loc 1 48 0
	ldr	r3, [sp, #4]
	uxtb	r3, r3
	and	r3, r3, #15
	strb	r3, [sp, #15]
	.loc 1 49 0
	ldrb	r3, [sp, #15]
	orn	r3, r3, #31
	strb	r3, [sp, #15]
	.loc 1 50 0
	movs	r3, #3
	str	r3, [sp, #8]
	.loc 1 51 0
	b	.L5
.L7:
	.loc 1 54 0
	ldr	r3, [sp, #4]
	uxtb	r3, r3
	and	r3, r3, #63
	strb	r3, [sp, #12]
	.loc 1 55 0
	ldrb	r3, [sp, #12]
	orn	r3, r3, #127
	strb	r3, [sp, #12]
	.loc 1 56 0
	ldr	r3, [sp, #4]
	lsrs	r3, r3, #6
	str	r3, [sp, #4]
	.loc 1 57 0
	ldr	r3, [sp, #4]
	uxtb	r3, r3
	and	r3, r3, #63
	strb	r3, [sp, #13]
	.loc 1 58 0
	ldrb	r3, [sp, #13]
	orn	r3, r3, #127
	strb	r3, [sp, #13]
	.loc 1 59 0
	ldr	r3, [sp, #4]
	lsrs	r3, r3, #6
	str	r3, [sp, #4]
	.loc 1 60 0
	ldr	r3, [sp, #4]
	uxtb	r3, r3
	and	r3, r3, #63
	strb	r3, [sp, #14]
	.loc 1 61 0
	ldrb	r3, [sp, #14]
	orn	r3, r3, #127
	strb	r3, [sp, #14]
	.loc 1 62 0
	ldr	r3, [sp, #4]
	lsrs	r3, r3, #6
	str	r3, [sp, #4]
	.loc 1 63 0
	ldr	r3, [sp, #4]
	uxtb	r3, r3
	and	r3, r3, #7
	strb	r3, [sp, #15]
	.loc 1 64 0
	ldrb	r3, [sp, #15]
	orn	r3, r3, #15
	strb	r3, [sp, #15]
	.loc 1 65 0
	movs	r3, #4
	str	r3, [sp, #8]
.L5:
	.loc 1 68 0
	ldr	r3, [sp]
	ldrb	r2, [sp, #15]
	strb	r2, [r3]
	.loc 1 69 0
	ldr	r3, [sp, #8]
	cmp	r3, #1
	bls	.L8
	.loc 1 70 0
	ldr	r3, [sp]
	adds	r3, r3, #1
	ldrb	r2, [sp, #14]
	strb	r2, [r3]
.L8:
	.loc 1 71 0
	ldr	r3, [sp, #8]
	cmp	r3, #2
	bls	.L9
	.loc 1 72 0
	ldr	r3, [sp]
	adds	r3, r3, #2
	ldrb	r2, [sp, #13]
	strb	r2, [r3]
.L9:
	.loc 1 73 0
	ldr	r3, [sp, #8]
	cmp	r3, #3
	bls	.L10
	.loc 1 74 0
	ldr	r3, [sp]
	adds	r3, r3, #3
	ldrb	r2, [sp, #12]
	strb	r2, [r3]
.L10:
	.loc 1 75 0
	ldr	r3, [sp, #8]
	.loc 1 76 0
	mov	r0, r3
	add	sp, sp, #16
.LCFI1:
	@ sp needed
	bx	lr
.LFE0:
	.size	utf8EncodeRune, .-utf8EncodeRune
	.section	.text.utf8DecodeRune,"ax",%progbits
	.align	1
	.global	utf8DecodeRune
	.syntax unified
	.thumb
	.thumb_func
	.fpu fpv4-sp-d16
	.type	utf8DecodeRune, %function
utf8DecodeRune:
.LFB1:
	.loc 1 79 0
	@ args = 0, pretend = 0, frame = 40
	@ frame_needed = 0, uses_anonymous_args = 0
	@ link register save eliminated.
	sub	sp, sp, #40
.LCFI2:
	str	r0, [sp, #12]
	str	r1, [sp, #8]
	str	r2, [sp, #4]
	.loc 1 85 0
	ldr	r3, [sp, #12]
	ldrb	r3, [r3]
	strb	r3, [sp, #23]
	.loc 1 86 0
	ldrsb	r3, [sp, #23]
	cmp	r3, #0
	blt	.L13
	.loc 1 87 0
	ldrb	r2, [sp, #23]	@ zero_extendqisi2
	ldr	r3, [sp, #4]
	str	r2, [r3]
	.loc 1 88 0
	ldr	r3, [sp, #12]
	adds	r3, r3, #1
	str	r3, [sp, #12]
	.loc 1 89 0
	ldr	r3, [sp, #12]
	b	.L14
.L13:
	.loc 1 94 0
	ldrb	r3, [sp, #23]	@ zero_extendqisi2
	cmp	r3, #193
	bls	.L15
	.loc 1 94 0 is_stmt 0 discriminator 1
	ldrb	r3, [sp, #23]	@ zero_extendqisi2
	cmp	r3, #244
	bls	.L16
.L15:
	.loc 1 95 0 is_stmt 1
	ldr	r3, [sp, #4]
	movw	r2, #65533
	str	r2, [r3]
	.loc 1 96 0
	ldr	r3, [sp, #12]
	adds	r3, r3, #1
	str	r3, [sp, #12]
	.loc 1 97 0
	ldr	r3, [sp, #12]
	b	.L14
.L16:
	.loc 1 101 0
	movs	r3, #128
	strb	r3, [sp, #39]
	.loc 1 102 0
	movs	r3, #191
	strb	r3, [sp, #38]
	.loc 1 103 0
	ldrb	r3, [sp, #23]	@ zero_extendqisi2
	subs	r3, r3, #224
	cmp	r3, #20
	bhi	.L17
	adr	r2, .L19
	ldr	pc, [r2, r3, lsl #2]
	.p2align 2
.L19:
	.word	.L18+1
	.word	.L17+1
	.word	.L17+1
	.word	.L17+1
	.word	.L17+1
	.word	.L17+1
	.word	.L17+1
	.word	.L17+1
	.word	.L17+1
	.word	.L17+1
	.word	.L17+1
	.word	.L17+1
	.word	.L17+1
	.word	.L20+1
	.word	.L17+1
	.word	.L17+1
	.word	.L21+1
	.word	.L17+1
	.word	.L17+1
	.word	.L17+1
	.word	.L22+1
	.p2align 1
.L18:
	.loc 1 106 0
	movs	r3, #160
	strb	r3, [sp, #39]
	.loc 1 107 0
	b	.L17
.L20:
	.loc 1 110 0
	movs	r3, #159
	strb	r3, [sp, #38]
	.loc 1 111 0
	b	.L17
.L21:
	.loc 1 114 0
	movs	r3, #144
	strb	r3, [sp, #39]
	.loc 1 115 0
	b	.L17
.L22:
	.loc 1 118 0
	movs	r3, #143
	strb	r3, [sp, #38]
	.loc 1 119 0
	nop
.L17:
	.loc 1 123 0
	movs	r3, #1
	str	r3, [sp, #28]
	.loc 1 124 0
	ldrb	r3, [sp, #23]	@ zero_extendqisi2
	cmp	r3, #223
	bls	.L23
	.loc 1 125 0
	ldr	r3, [sp, #28]
	adds	r3, r3, #1
	str	r3, [sp, #28]
.L23:
	.loc 1 126 0
	ldrb	r3, [sp, #23]	@ zero_extendqisi2
	cmp	r3, #239
	bls	.L24
	.loc 1 127 0
	ldr	r3, [sp, #28]
	adds	r3, r3, #1
	str	r3, [sp, #28]
.L24:
	.loc 1 128 0
	ldr	r3, [sp, #8]
	cmp	r3, #0
	beq	.L25
	.loc 1 129 0
	ldr	r3, [sp, #8]
	subs	r3, r3, #1
	str	r3, [sp, #8]
	.loc 1 130 0
	ldr	r2, [sp, #8]
	ldr	r3, [sp, #28]
	cmp	r2, r3
	bcs	.L25
	.loc 1 131 0
	ldr	r3, [sp, #4]
	movw	r2, #65533
	str	r2, [r3]
	.loc 1 132 0
	ldr	r3, [sp, #12]
	adds	r3, r3, #1
	str	r3, [sp, #12]
	.loc 1 133 0
	ldr	r3, [sp, #12]
	b	.L14
.L25:
	.loc 1 139 0
	movs	r3, #0
	str	r3, [sp, #24]
	.loc 1 140 0
	movs	r3, #0
	str	r3, [sp, #32]
	b	.L26
.L30:
	.loc 1 141 0
	ldr	r3, [sp, #32]
	adds	r3, r3, #1
	ldr	r2, [sp, #12]
	add	r3, r3, r2
	ldrb	r3, [r3]
	strb	r3, [sp, #22]
	.loc 1 142 0
	ldrb	r2, [sp, #22]	@ zero_extendqisi2
	ldrb	r3, [sp, #39]	@ zero_extendqisi2
	cmp	r2, r3
	bcc	.L27
	.loc 1 142 0 is_stmt 0 discriminator 1
	ldrb	r2, [sp, #22]	@ zero_extendqisi2
	ldrb	r3, [sp, #38]	@ zero_extendqisi2
	cmp	r2, r3
	bls	.L28
.L27:
	.loc 1 143 0 is_stmt 1
	movs	r3, #1
	str	r3, [sp, #24]
	.loc 1 144 0
	b	.L29
.L28:
	.loc 1 147 0 discriminator 2
	movs	r3, #128
	strb	r3, [sp, #39]
	.loc 1 148 0 discriminator 2
	movs	r3, #191
	strb	r3, [sp, #38]
	.loc 1 140 0 discriminator 2
	ldr	r3, [sp, #32]
	adds	r3, r3, #1
	str	r3, [sp, #32]
.L26:
	.loc 1 140 0 is_stmt 0 discriminator 1
	ldr	r2, [sp, #32]
	ldr	r3, [sp, #28]
	cmp	r2, r3
	bcc	.L30
.L29:
	.loc 1 150 0 is_stmt 1
	ldr	r3, [sp, #24]
	cmp	r3, #0
	beq	.L31
	.loc 1 151 0
	ldr	r3, [sp, #4]
	movw	r2, #65533
	str	r2, [r3]
	.loc 1 152 0
	ldr	r3, [sp, #12]
	adds	r3, r3, #1
	str	r3, [sp, #12]
	.loc 1 153 0
	ldr	r3, [sp, #12]
	b	.L14
.L31:
	.loc 1 157 0
	ldrb	r3, [sp, #23]	@ zero_extendqisi2
	cmp	r3, #223
	bhi	.L32
	.loc 1 158 0
	ldrb	r3, [sp, #23]	@ zero_extendqisi2
	and	r2, r3, #31
	ldr	r3, [sp, #4]
	str	r2, [r3]
	b	.L33
.L32:
	.loc 1 159 0
	ldrb	r3, [sp, #23]	@ zero_extendqisi2
	cmp	r3, #239
	bhi	.L34
	.loc 1 160 0
	ldrb	r3, [sp, #23]	@ zero_extendqisi2
	and	r2, r3, #15
	ldr	r3, [sp, #4]
	str	r2, [r3]
	b	.L33
.L34:
	.loc 1 162 0
	ldrb	r3, [sp, #23]	@ zero_extendqisi2
	and	r2, r3, #7
	ldr	r3, [sp, #4]
	str	r2, [r3]
.L33:
	.loc 1 163 0
	ldr	r3, [sp, #12]
	adds	r3, r3, #1
	str	r3, [sp, #12]
	.loc 1 166 0
	b	.L35
.L36:
	.loc 1 167 0 discriminator 2
	ldr	r3, [sp, #12]
	ldrb	r3, [r3]
	strb	r3, [sp, #22]
	.loc 1 168 0 discriminator 2
	ldr	r3, [sp, #12]
	adds	r3, r3, #1
	str	r3, [sp, #12]
	.loc 1 169 0 discriminator 2
	ldrb	r3, [sp, #22]
	and	r3, r3, #63
	strb	r3, [sp, #22]
	.loc 1 170 0 discriminator 2
	ldr	r3, [sp, #4]
	ldr	r3, [r3]
	lsls	r2, r3, #6
	ldr	r3, [sp, #4]
	str	r2, [r3]
	.loc 1 171 0 discriminator 2
	ldr	r3, [sp, #4]
	ldr	r2, [r3]
	ldrb	r3, [sp, #22]	@ zero_extendqisi2
	orrs	r2, r2, r3
	ldr	r3, [sp, #4]
	str	r2, [r3]
	.loc 1 166 0 discriminator 2
	ldr	r3, [sp, #28]
	subs	r3, r3, #1
	str	r3, [sp, #28]
.L35:
	.loc 1 166 0 is_stmt 0 discriminator 1
	ldr	r3, [sp, #28]
	cmp	r3, #0
	bne	.L36
	.loc 1 174 0 is_stmt 1
	ldr	r3, [sp, #12]
.L14:
	.loc 1 175 0
	mov	r0, r3
	add	sp, sp, #40
.LCFI3:
	@ sp needed
	bx	lr
.LFE1:
	.size	utf8DecodeRune, .-utf8DecodeRune
	.section	.text.utf16EncodeRune,"ax",%progbits
	.align	1
	.global	utf16EncodeRune
	.syntax unified
	.thumb
	.thumb_func
	.fpu fpv4-sp-d16
	.type	utf16EncodeRune, %function
utf16EncodeRune:
.LFB2:
	.loc 1 179 0
	@ args = 0, pretend = 0, frame = 16
	@ frame_needed = 0, uses_anonymous_args = 0
	@ link register save eliminated.
	sub	sp, sp, #16
.LCFI4:
	str	r0, [sp, #4]
	str	r1, [sp]
	.loc 1 183 0
	ldr	r3, [sp, #4]
	cmp	r3, #1114112
	bcc	.L38
	.loc 1 184 0
	movw	r3, #65533
	str	r3, [sp, #4]
.L38:
	.loc 1 186 0
	ldr	r3, [sp, #4]
	cmp	r3, #55296
	bcc	.L39
	.loc 1 186 0 is_stmt 0 discriminator 1
	ldr	r3, [sp, #4]
	cmp	r3, #57344
	bcs	.L39
	.loc 1 187 0 is_stmt 1
	movw	r3, #65533
	str	r3, [sp, #4]
.L39:
	.loc 1 189 0
	ldr	r3, [sp, #4]
	cmp	r3, #65536
	bcs	.L40
	.loc 1 190 0
	ldr	r3, [sp, #4]
	uxth	r2, r3
	ldr	r3, [sp]
	strh	r2, [r3]	@ movhi
	.loc 1 191 0
	movs	r3, #1
	b	.L41
.L40:
	.loc 1 194 0
	ldr	r3, [sp, #4]
	sub	r3, r3, #65536
	str	r3, [sp, #4]
	.loc 1 195 0
	ldr	r3, [sp, #4]
	uxth	r3, r3
	ubfx	r3, r3, #0, #10
	strh	r3, [sp, #14]	@ movhi
	.loc 1 196 0
	ldr	r3, [sp, #4]
	lsrs	r3, r3, #10
	str	r3, [sp, #4]
	.loc 1 197 0
	ldr	r3, [sp, #4]
	uxth	r3, r3
	ubfx	r3, r3, #0, #10
	strh	r3, [sp, #12]	@ movhi
	.loc 1 198 0
	ldrh	r3, [sp, #12]	@ movhi
	orr	r3, r3, #-16777216
	orr	r3, r3, #16711680
	orr	r3, r3, #55296
	uxth	r2, r3
	ldr	r3, [sp]
	strh	r2, [r3]	@ movhi
	.loc 1 199 0
	ldr	r3, [sp]
	adds	r2, r3, #2
	ldrh	r3, [sp, #14]	@ movhi
	orr	r3, r3, #-16777216
	orr	r3, r3, #16711680
	orr	r3, r3, #56320
	uxth	r3, r3
	strh	r3, [r2]	@ movhi
	.loc 1 200 0
	movs	r3, #2
.L41:
	.loc 1 201 0
	mov	r0, r3
	add	sp, sp, #16
.LCFI5:
	@ sp needed
	bx	lr
.LFE2:
	.size	utf16EncodeRune, .-utf16EncodeRune
	.section	.text.utf16DecodeRune,"ax",%progbits
	.align	1
	.global	utf16DecodeRune
	.syntax unified
	.thumb
	.thumb_func
	.fpu fpv4-sp-d16
	.type	utf16DecodeRune, %function
utf16DecodeRune:
.LFB3:
	.loc 1 205 0
	@ args = 0, pretend = 0, frame = 24
	@ frame_needed = 0, uses_anonymous_args = 0
	@ link register save eliminated.
	sub	sp, sp, #24
.LCFI6:
	str	r0, [sp, #12]
	str	r1, [sp, #8]
	str	r2, [sp, #4]
	.loc 1 208 0
	ldr	r3, [sp, #12]
	ldrh	r3, [r3]
	cmp	r3, #55296
	bcc	.L43
	.loc 1 208 0 is_stmt 0 discriminator 1
	ldr	r3, [sp, #12]
	ldrh	r3, [r3]
	cmp	r3, #57344
	bcc	.L44
.L43:
	.loc 1 210 0 is_stmt 1
	ldr	r3, [sp, #12]
	ldrh	r3, [r3]
	mov	r2, r3
	ldr	r3, [sp, #4]
	str	r2, [r3]
	.loc 1 211 0
	ldr	r3, [sp, #12]
	adds	r3, r3, #2
	str	r3, [sp, #12]
	.loc 1 212 0
	ldr	r3, [sp, #12]
	b	.L45
.L44:
	.loc 1 214 0
	ldr	r3, [sp, #12]
	ldrh	r3, [r3]
	cmp	r3, #56320
	bcc	.L46
	.loc 1 216 0
	ldr	r3, [sp, #4]
	movw	r2, #65533
	str	r2, [r3]
	.loc 1 217 0
	ldr	r3, [sp, #12]
	adds	r3, r3, #2
	str	r3, [sp, #12]
	.loc 1 218 0
	ldr	r3, [sp, #12]
	b	.L45
.L46:
	.loc 1 220 0
	ldr	r3, [sp, #8]
	cmp	r3, #1
	bne	.L47
	.loc 1 221 0
	ldr	r3, [sp, #4]
	movw	r2, #65533
	str	r2, [r3]
	.loc 1 222 0
	ldr	r3, [sp, #12]
	adds	r3, r3, #2
	str	r3, [sp, #12]
	.loc 1 223 0
	ldr	r3, [sp, #12]
	b	.L45
.L47:
	.loc 1 225 0
	ldr	r3, [sp, #12]
	ldrh	r3, [r3]	@ movhi
	strh	r3, [sp, #22]	@ movhi
	.loc 1 226 0
	ldrh	r3, [sp, #22]	@ movhi
	ubfx	r3, r3, #0, #10
	strh	r3, [sp, #22]	@ movhi
	.loc 1 227 0
	ldr	r3, [sp, #12]
	adds	r3, r3, #2
	ldrh	r3, [r3]
	cmp	r3, #56320
	bcc	.L48
	.loc 1 227 0 is_stmt 0 discriminator 1
	ldr	r3, [sp, #12]
	adds	r3, r3, #2
	ldrh	r3, [r3]
	cmp	r3, #57344
	bcc	.L49
.L48:
	.loc 1 229 0 is_stmt 1
	ldr	r3, [sp, #4]
	movw	r2, #65533
	str	r2, [r3]
	.loc 1 230 0
	ldr	r3, [sp, #12]
	adds	r3, r3, #2
	str	r3, [sp, #12]
	.loc 1 231 0
	ldr	r3, [sp, #12]
	b	.L45
.L49:
	.loc 1 233 0
	ldr	r3, [sp, #12]
	adds	r3, r3, #2
	str	r3, [sp, #12]
	.loc 1 234 0
	ldr	r3, [sp, #12]
	ldrh	r3, [r3]	@ movhi
	strh	r3, [sp, #20]	@ movhi
	.loc 1 235 0
	ldr	r3, [sp, #12]
	adds	r3, r3, #2
	str	r3, [sp, #12]
	.loc 1 236 0
	ldrh	r3, [sp, #20]	@ movhi
	ubfx	r3, r3, #0, #10
	strh	r3, [sp, #20]	@ movhi
	.loc 1 237 0
	ldrh	r2, [sp, #22]
	ldr	r3, [sp, #4]
	str	r2, [r3]
	.loc 1 238 0
	ldr	r3, [sp, #4]
	ldr	r3, [r3]
	lsls	r2, r3, #10
	ldr	r3, [sp, #4]
	str	r2, [r3]
	.loc 1 239 0
	ldr	r3, [sp, #4]
	ldr	r2, [r3]
	ldrh	r3, [sp, #20]
	orrs	r2, r2, r3
	ldr	r3, [sp, #4]
	str	r2, [r3]
	.loc 1 240 0
	ldr	r3, [sp, #4]
	ldr	r3, [r3]
	add	r2, r3, #65536
	ldr	r3, [sp, #4]
	str	r2, [r3]
	.loc 1 241 0
	ldr	r3, [sp, #12]
.L45:
	.loc 1 242 0
	mov	r0, r3
	add	sp, sp, #24
.LCFI7:
	@ sp needed
	bx	lr
.LFE3:
	.size	utf16DecodeRune, .-utf16DecodeRune
	.section	.text.utf8RuneCount,"ax",%progbits
	.align	1
	.global	utf8RuneCount
	.syntax unified
	.thumb
	.thumb_func
	.fpu fpv4-sp-d16
	.type	utf8RuneCount, %function
utf8RuneCount:
.LFB4:
	.loc 1 247 0
	@ args = 0, pretend = 0, frame = 24
	@ frame_needed = 0, uses_anonymous_args = 0
	push	{lr}
.LCFI8:
	sub	sp, sp, #28
.LCFI9:
	str	r0, [sp, #4]
	str	r1, [sp]
	.loc 1 251 0
	ldr	r3, [sp]
	cmp	r3, #0
	beq	.L51
.LBB2:
	.loc 1 254 0
	movs	r3, #0
	str	r3, [sp, #20]
	.loc 1 255 0
	ldr	r3, [sp, #4]
	str	r3, [sp, #16]
	.loc 1 256 0
	b	.L52
.L53:
	.loc 1 257 0
	add	r3, sp, #8
	mov	r2, r3
	ldr	r1, [sp]
	ldr	r0, [sp, #16]
	bl	utf8DecodeRune
	str	r0, [sp, #12]
	.loc 1 258 0
	ldr	r3, [sp, #20]
	adds	r3, r3, #1
	str	r3, [sp, #20]
	.loc 1 259 0
	ldr	r2, [sp, #12]
	ldr	r3, [sp, #16]
	subs	r3, r2, r3
	mov	r2, r3
	ldr	r3, [sp]
	subs	r3, r3, r2
	str	r3, [sp]
	.loc 1 260 0
	ldr	r3, [sp, #12]
	str	r3, [sp, #16]
.L52:
	.loc 1 256 0
	ldr	r3, [sp]
	cmp	r3, #0
	bne	.L53
	.loc 1 262 0
	ldr	r3, [sp, #20]
	b	.L57
.L51:
.LBE2:
	.loc 1 264 0
	movs	r3, #0
	str	r3, [sp, #20]
	.loc 1 265 0
	b	.L55
.L56:
	.loc 1 266 0
	add	r3, sp, #8
	mov	r2, r3
	ldr	r1, [sp]
	ldr	r0, [sp, #4]
	bl	utf8DecodeRune
	str	r0, [sp, #4]
	.loc 1 267 0
	ldr	r3, [sp, #20]
	adds	r3, r3, #1
	str	r3, [sp, #20]
.L55:
	.loc 1 265 0
	ldr	r3, [sp, #4]
	ldrb	r3, [r3]	@ zero_extendqisi2
	cmp	r3, #0
	bne	.L56
	.loc 1 269 0
	ldr	r3, [sp, #20]
.L57:
	.loc 1 270 0 discriminator 1
	mov	r0, r3
	add	sp, sp, #28
.LCFI10:
	@ sp needed
	ldr	pc, [sp], #4
.LFE4:
	.size	utf8RuneCount, .-utf8RuneCount
	.section	.text.utf8UTF16Count,"ax",%progbits
	.align	1
	.global	utf8UTF16Count
	.syntax unified
	.thumb
	.thumb_func
	.fpu fpv4-sp-d16
	.type	utf8UTF16Count, %function
utf8UTF16Count:
.LFB5:
	.loc 1 273 0
	@ args = 0, pretend = 0, frame = 32
	@ frame_needed = 0, uses_anonymous_args = 0
	push	{lr}
.LCFI11:
	sub	sp, sp, #36
.LCFI12:
	str	r0, [sp, #4]
	str	r1, [sp]
	.loc 1 278 0
	ldr	r3, [sp]
	cmp	r3, #0
	beq	.L59
.LBB3:
	.loc 1 281 0
	movs	r3, #0
	str	r3, [sp, #28]
	.loc 1 282 0
	ldr	r3, [sp, #4]
	str	r3, [sp, #24]
	.loc 1 283 0
	b	.L60
.L61:
	.loc 1 284 0
	add	r3, sp, #16
	mov	r2, r3
	ldr	r1, [sp]
	ldr	r0, [sp, #24]
	bl	utf8DecodeRune
	str	r0, [sp, #20]
	.loc 1 285 0
	ldr	r3, [sp, #16]
	add	r2, sp, #12
	mov	r1, r2
	mov	r0, r3
	bl	utf16EncodeRune
	mov	r2, r0
	ldr	r3, [sp, #28]
	add	r3, r3, r2
	str	r3, [sp, #28]
	.loc 1 286 0
	ldr	r2, [sp, #20]
	ldr	r3, [sp, #24]
	subs	r3, r2, r3
	mov	r2, r3
	ldr	r3, [sp]
	subs	r3, r3, r2
	str	r3, [sp]
	.loc 1 287 0
	ldr	r3, [sp, #20]
	str	r3, [sp, #24]
.L60:
	.loc 1 283 0
	ldr	r3, [sp]
	cmp	r3, #0
	bne	.L61
	.loc 1 289 0
	ldr	r3, [sp, #28]
	b	.L65
.L59:
.LBE3:
	.loc 1 291 0
	movs	r3, #0
	str	r3, [sp, #28]
	.loc 1 292 0
	b	.L63
.L64:
	.loc 1 293 0
	add	r3, sp, #16
	mov	r2, r3
	ldr	r1, [sp]
	ldr	r0, [sp, #4]
	bl	utf8DecodeRune
	str	r0, [sp, #4]
	.loc 1 294 0
	ldr	r3, [sp, #16]
	add	r2, sp, #12
	mov	r1, r2
	mov	r0, r3
	bl	utf16EncodeRune
	mov	r2, r0
	ldr	r3, [sp, #28]
	add	r3, r3, r2
	str	r3, [sp, #28]
.L63:
	.loc 1 292 0
	ldr	r3, [sp, #4]
	ldrb	r3, [r3]	@ zero_extendqisi2
	cmp	r3, #0
	bne	.L64
	.loc 1 296 0
	ldr	r3, [sp, #28]
.L65:
	.loc 1 297 0 discriminator 1
	mov	r0, r3
	add	sp, sp, #36
.LCFI13:
	@ sp needed
	ldr	pc, [sp], #4
.LFE5:
	.size	utf8UTF16Count, .-utf8UTF16Count
	.section	.text.utf16RuneCount,"ax",%progbits
	.align	1
	.global	utf16RuneCount
	.syntax unified
	.thumb
	.thumb_func
	.fpu fpv4-sp-d16
	.type	utf16RuneCount, %function
utf16RuneCount:
.LFB6:
	.loc 1 300 0
	@ args = 0, pretend = 0, frame = 24
	@ frame_needed = 0, uses_anonymous_args = 0
	push	{lr}
.LCFI14:
	sub	sp, sp, #28
.LCFI15:
	str	r0, [sp, #4]
	str	r1, [sp]
	.loc 1 304 0
	ldr	r3, [sp]
	cmp	r3, #0
	beq	.L67
.LBB4:
	.loc 1 307 0
	movs	r3, #0
	str	r3, [sp, #20]
	.loc 1 308 0
	ldr	r3, [sp, #4]
	str	r3, [sp, #16]
	.loc 1 309 0
	b	.L68
.L69:
	.loc 1 310 0
	add	r3, sp, #8
	mov	r2, r3
	ldr	r1, [sp]
	ldr	r0, [sp, #16]
	bl	utf16DecodeRune
	str	r0, [sp, #12]
	.loc 1 311 0
	ldr	r3, [sp, #20]
	adds	r3, r3, #1
	str	r3, [sp, #20]
	.loc 1 312 0
	ldr	r2, [sp, #12]
	ldr	r3, [sp, #16]
	subs	r3, r2, r3
	asrs	r3, r3, #1
	mov	r2, r3
	ldr	r3, [sp]
	subs	r3, r3, r2
	str	r3, [sp]
	.loc 1 313 0
	ldr	r3, [sp, #12]
	str	r3, [sp, #16]
.L68:
	.loc 1 309 0
	ldr	r3, [sp]
	cmp	r3, #0
	bne	.L69
	.loc 1 315 0
	ldr	r3, [sp, #20]
	b	.L73
.L67:
.LBE4:
	.loc 1 317 0
	movs	r3, #0
	str	r3, [sp, #20]
	.loc 1 318 0
	b	.L71
.L72:
	.loc 1 319 0
	add	r3, sp, #8
	mov	r2, r3
	ldr	r1, [sp]
	ldr	r0, [sp, #4]
	bl	utf16DecodeRune
	str	r0, [sp, #4]
	.loc 1 320 0
	ldr	r3, [sp, #20]
	adds	r3, r3, #1
	str	r3, [sp, #20]
.L71:
	.loc 1 318 0
	ldr	r3, [sp, #4]
	ldrh	r3, [r3]
	cmp	r3, #0
	bne	.L72
	.loc 1 322 0
	ldr	r3, [sp, #20]
.L73:
	.loc 1 323 0 discriminator 1
	mov	r0, r3
	add	sp, sp, #28
.LCFI16:
	@ sp needed
	ldr	pc, [sp], #4
.LFE6:
	.size	utf16RuneCount, .-utf16RuneCount
	.section	.text.utf16UTF8Count,"ax",%progbits
	.align	1
	.global	utf16UTF8Count
	.syntax unified
	.thumb
	.thumb_func
	.fpu fpv4-sp-d16
	.type	utf16UTF8Count, %function
utf16UTF8Count:
.LFB7:
	.loc 1 326 0
	@ args = 0, pretend = 0, frame = 32
	@ frame_needed = 0, uses_anonymous_args = 0
	push	{lr}
.LCFI17:
	sub	sp, sp, #36
.LCFI18:
	str	r0, [sp, #4]
	str	r1, [sp]
	.loc 1 331 0
	ldr	r3, [sp]
	cmp	r3, #0
	beq	.L75
.LBB5:
	.loc 1 334 0
	movs	r3, #0
	str	r3, [sp, #28]
	.loc 1 335 0
	ldr	r3, [sp, #4]
	str	r3, [sp, #24]
	.loc 1 336 0
	b	.L76
.L77:
	.loc 1 337 0
	add	r3, sp, #16
	mov	r2, r3
	ldr	r1, [sp]
	ldr	r0, [sp, #24]
	bl	utf16DecodeRune
	str	r0, [sp, #20]
	.loc 1 338 0
	ldr	r3, [sp, #16]
	add	r2, sp, #12
	mov	r1, r2
	mov	r0, r3
	bl	utf8EncodeRune
	mov	r2, r0
	ldr	r3, [sp, #28]
	add	r3, r3, r2
	str	r3, [sp, #28]
	.loc 1 339 0
	ldr	r2, [sp, #20]
	ldr	r3, [sp, #24]
	subs	r3, r2, r3
	asrs	r3, r3, #1
	mov	r2, r3
	ldr	r3, [sp]
	subs	r3, r3, r2
	str	r3, [sp]
	.loc 1 340 0
	ldr	r3, [sp, #20]
	str	r3, [sp, #24]
.L76:
	.loc 1 336 0
	ldr	r3, [sp]
	cmp	r3, #0
	bne	.L77
	.loc 1 342 0
	ldr	r3, [sp, #28]
	b	.L81
.L75:
.LBE5:
	.loc 1 344 0
	movs	r3, #0
	str	r3, [sp, #28]
	.loc 1 345 0
	b	.L79
.L80:
	.loc 1 346 0
	add	r3, sp, #16
	mov	r2, r3
	ldr	r1, [sp]
	ldr	r0, [sp, #4]
	bl	utf16DecodeRune
	str	r0, [sp, #4]
	.loc 1 347 0
	ldr	r3, [sp, #16]
	add	r2, sp, #12
	mov	r1, r2
	mov	r0, r3
	bl	utf8EncodeRune
	mov	r2, r0
	ldr	r3, [sp, #28]
	add	r3, r3, r2
	str	r3, [sp, #28]
.L79:
	.loc 1 345 0
	ldr	r3, [sp, #4]
	ldrh	r3, [r3]
	cmp	r3, #0
	bne	.L80
	.loc 1 349 0
	ldr	r3, [sp, #28]
.L81:
	.loc 1 350 0 discriminator 1
	mov	r0, r3
	add	sp, sp, #36
.LCFI19:
	@ sp needed
	ldr	pc, [sp], #4
.LFE7:
	.size	utf16UTF8Count, .-utf16UTF8Count
	.section	.debug_frame,"",%progbits
.Lframe0:
	.4byte	.LECIE0-.LSCIE0
.LSCIE0:
	.4byte	0xffffffff
	.byte	0x3
	.ascii	"\000"
	.uleb128 0x1
	.sleb128 -4
	.uleb128 0xe
	.byte	0xc
	.uleb128 0xd
	.uleb128 0
	.align	2
.LECIE0:
.LSFDE0:
	.4byte	.LEFDE0-.LASFDE0
.LASFDE0:
	.4byte	.Lframe0
	.4byte	.LFB0
	.4byte	.LFE0-.LFB0
	.byte	0x4
	.4byte	.LCFI0-.LFB0
	.byte	0xe
	.uleb128 0x10
	.byte	0x4
	.4byte	.LCFI1-.LCFI0
	.byte	0xe
	.uleb128 0
	.align	2
.LEFDE0:
.LSFDE2:
	.4byte	.LEFDE2-.LASFDE2
.LASFDE2:
	.4byte	.Lframe0
	.4byte	.LFB1
	.4byte	.LFE1-.LFB1
	.byte	0x4
	.4byte	.LCFI2-.LFB1
	.byte	0xe
	.uleb128 0x28
	.byte	0x4
	.4byte	.LCFI3-.LCFI2
	.byte	0xe
	.uleb128 0
	.align	2
.LEFDE2:
.LSFDE4:
	.4byte	.LEFDE4-.LASFDE4
.LASFDE4:
	.4byte	.Lframe0
	.4byte	.LFB2
	.4byte	.LFE2-.LFB2
	.byte	0x4
	.4byte	.LCFI4-.LFB2
	.byte	0xe
	.uleb128 0x10
	.byte	0x4
	.4byte	.LCFI5-.LCFI4
	.byte	0xe
	.uleb128 0
	.align	2
.LEFDE4:
.LSFDE6:
	.4byte	.LEFDE6-.LASFDE6
.LASFDE6:
	.4byte	.Lframe0
	.4byte	.LFB3
	.4byte	.LFE3-.LFB3
	.byte	0x4
	.4byte	.LCFI6-.LFB3
	.byte	0xe
	.uleb128 0x18
	.byte	0x4
	.4byte	.LCFI7-.LCFI6
	.byte	0xe
	.uleb128 0
	.align	2
.LEFDE6:
.LSFDE8:
	.4byte	.LEFDE8-.LASFDE8
.LASFDE8:
	.4byte	.Lframe0
	.4byte	.LFB4
	.4byte	.LFE4-.LFB4
	.byte	0x4
	.4byte	.LCFI8-.LFB4
	.byte	0xe
	.uleb128 0x4
	.byte	0x8e
	.uleb128 0x1
	.byte	0x4
	.4byte	.LCFI9-.LCFI8
	.byte	0xe
	.uleb128 0x20
	.byte	0x4
	.4byte	.LCFI10-.LCFI9
	.byte	0xe
	.uleb128 0x4
	.align	2
.LEFDE8:
.LSFDE10:
	.4byte	.LEFDE10-.LASFDE10
.LASFDE10:
	.4byte	.Lframe0
	.4byte	.LFB5
	.4byte	.LFE5-.LFB5
	.byte	0x4
	.4byte	.LCFI11-.LFB5
	.byte	0xe
	.uleb128 0x4
	.byte	0x8e
	.uleb128 0x1
	.byte	0x4
	.4byte	.LCFI12-.LCFI11
	.byte	0xe
	.uleb128 0x28
	.byte	0x4
	.4byte	.LCFI13-.LCFI12
	.byte	0xe
	.uleb128 0x4
	.align	2
.LEFDE10:
.LSFDE12:
	.4byte	.LEFDE12-.LASFDE12
.LASFDE12:
	.4byte	.Lframe0
	.4byte	.LFB6
	.4byte	.LFE6-.LFB6
	.byte	0x4
	.4byte	.LCFI14-.LFB6
	.byte	0xe
	.uleb128 0x4
	.byte	0x8e
	.uleb128 0x1
	.byte	0x4
	.4byte	.LCFI15-.LCFI14
	.byte	0xe
	.uleb128 0x20
	.byte	0x4
	.4byte	.LCFI16-.LCFI15
	.byte	0xe
	.uleb128 0x4
	.align	2
.LEFDE12:
.LSFDE14:
	.4byte	.LEFDE14-.LASFDE14
.LASFDE14:
	.4byte	.Lframe0
	.4byte	.LFB7
	.4byte	.LFE7-.LFB7
	.byte	0x4
	.4byte	.LCFI17-.LFB7
	.byte	0xe
	.uleb128 0x4
	.byte	0x8e
	.uleb128 0x1
	.byte	0x4
	.4byte	.LCFI18-.LCFI17
	.byte	0xe
	.uleb128 0x28
	.byte	0x4
	.4byte	.LCFI19-.LCFI18
	.byte	0xe
	.uleb128 0x4
	.align	2
.LEFDE14:
	.text
.Letext0:
	.file 2 "C:/Program Files/SEGGER/SEGGER Embedded Studio for ARM 4.10a/include/__crossworks.h"
	.file 3 "C:/Program Files/SEGGER/SEGGER Embedded Studio for ARM 4.10a/include/stddef.h"
	.file 4 "C:/Program Files/SEGGER/SEGGER Embedded Studio for ARM 4.10a/include/stdint.h"